target datalayout = "e-m:e-p270:32:32-p271:32:32-p272:64:64-i64:64-i128:128-f80:128-n8:16:32:64-S128"
target triple = "x86_64-pc-linux-gnu"

; Function Attrs: inlinehint nounwind uwtable
define internal void @hwloc_lstopo_show_summary(ptr noundef %0, ptr noundef %1) #6 {
  %3 = alloca ptr, align 8
  %4 = alloca ptr, align 8
  %5 = alloca i32, align 4
  %6 = alloca i32, align 4
  %7 = alloca i64, align 8
  %8 = alloca i64, align 8
  store ptr %0, ptr %3, align 8, !tbaa !27
  store ptr %1, ptr %4, align 8, !tbaa !23
  call void @llvm.lifetime.start.p0(i64 4, ptr %5) #12
  %9 = load ptr, ptr %4, align 8, !tbaa !23
  %10 = call i32 @hwloc_topology_get_depth(ptr noundef %9) #14
  store i32 %10, ptr %5, align 4, !tbaa !25
  call void @llvm.lifetime.start.p0(i64 4, ptr %6) #12
  call void @llvm.lifetime.start.p0(i64 8, ptr %7) #12
  call void @llvm.lifetime.start.p0(i64 8, ptr %8) #12
  %11 = load i32, ptr %5, align 4, !tbaa !25
  %12 = sub nsw i32 %11, 1
  %13 = sext i32 %12 to i64
  %14 = add i64 %13, 12
  store i64 %14, ptr %7, align 8, !tbaa !99
  store i64 19, ptr %8, align 8, !tbaa !99
  %15 = load i64, ptr %7, align 8, !tbaa !99
  %16 = load i64, ptr %8, align 8, !tbaa !99
  %17 = icmp ult i64 %15, %16
  br i1 %17, label %18, label %20

18:                                               ; preds = %2
  %19 = load i64, ptr %8, align 8, !tbaa !99
  store i64 %19, ptr %7, align 8, !tbaa !99
  br label %20

20:                                               ; preds = %18, %2
  store i32 0, ptr %6, align 4, !tbaa !25
  br label %21

21:                                               ; preds = %30, %20
  %22 = load i32, ptr %6, align 4, !tbaa !25
  %23 = load i32, ptr %5, align 4, !tbaa !25
  %24 = icmp slt i32 %22, %23
  br i1 %24, label %25, label %33

25:                                               ; preds = %21
  %26 = load ptr, ptr %3, align 8, !tbaa !27
  %27 = load i64, ptr %7, align 8, !tbaa !99
  %28 = load ptr, ptr %4, align 8, !tbaa !23
  %29 = load i32, ptr %6, align 4, !tbaa !25
  call void @hwloc_lstopo_show_summary_depth(ptr noundef %26, i64 noundef %27, ptr noundef %28, i32 noundef %29)
  br label %30

30:                                               ; preds = %25
  %31 = load i32, ptr %6, align 4, !tbaa !25
  %32 = add nsw i32 %31, 1
  store i32 %32, ptr %6, align 4, !tbaa !25
  br label %21, !llvm.loop !100

33:                                               ; preds = %21
  %34 = load ptr, ptr %3, align 8, !tbaa !27
  %35 = load i64, ptr %7, align 8, !tbaa !99
  %36 = load ptr, ptr %4, align 8, !tbaa !23
  call void @hwloc_lstopo_show_summary_depth(ptr noundef %34, i64 noundef %35, ptr noundef %36, i32 noundef -3)
  %37 = load ptr, ptr %3, align 8, !tbaa !27
  %38 = load i64, ptr %7, align 8, !tbaa !99
  %39 = load ptr, ptr %4, align 8, !tbaa !23
  call void @hwloc_lstopo_show_summary_depth(ptr noundef %37, i64 noundef %38, ptr noundef %39, i32 noundef -8)
  %40 = load ptr, ptr %3, align 8, !tbaa !27
  %41 = load i64, ptr %7, align 8, !tbaa !99
  %42 = load ptr, ptr %4, align 8, !tbaa !23
  call void @hwloc_lstopo_show_summary_depth(ptr noundef %40, i64 noundef %41, ptr noundef %42, i32 noundef -4)
  %43 = load ptr, ptr %3, align 8, !tbaa !27
  %44 = load i64, ptr %7, align 8, !tbaa !99
  %45 = load ptr, ptr %4, align 8, !tbaa !23
  call void @hwloc_lstopo_show_summary_depth(ptr noundef %43, i64 noundef %44, ptr noundef %45, i32 noundef -5)
  %46 = load ptr, ptr %3, align 8, !tbaa !27
  %47 = load i64, ptr %7, align 8, !tbaa !99
  %48 = load ptr, ptr %4, align 8, !tbaa !23
  call void @hwloc_lstopo_show_summary_depth(ptr noundef %46, i64 noundef %47, ptr noundef %48, i32 noundef -6)
  %49 = load ptr, ptr %3, align 8, !tbaa !27
  %50 = load i64, ptr %7, align 8, !tbaa !99
  %51 = load ptr, ptr %4, align 8, !tbaa !23
  call void @hwloc_lstopo_show_summary_depth(ptr noundef %49, i64 noundef %50, ptr noundef %51, i32 noundef -7)
  call void @llvm.lifetime.end.p0(i64 8, ptr %8) #12
  call void @llvm.lifetime.end.p0(i64 8, ptr %7) #12
  call void @llvm.lifetime.end.p0(i64 4, ptr %6) #12
  call void @llvm.lifetime.end.p0(i64 4, ptr %5) #12
  ret void
}