; Function Attrs: inlinehint nounwind uwtable
define internal fastcc void @hwloc_lstopo_show_summary(ptr noundef nonnull captures(none) %0, ptr noundef %1) unnamed_addr #6 {
  %3 = tail call i32 @hwloc_topology_get_depth(ptr noundef %1) #21
  %4 = sext i32 %3 to i64
  %5 = add nsw i64 %4, 11
  %spec.select = tail call i64 @llvm.umax.i64(i64 %5, i64 19)
  %6 = icmp sgt i32 %3, 0
  br i1 %6, label %.lr.ph, label %._crit_edge

.lr.ph:                                           ; preds = %2, %.lr.ph
  %.041 = phi i32 [ %7, %.lr.ph ], [ 0, %2 ]
  tail call fastcc void @hwloc_lstopo_show_summary_depth(ptr noundef %0, i64 noundef %spec.select, ptr noundef %1, i32 noundef %.041)
  %7 = add nuw nsw i32 %.041, 1
  %exitcond.not = icmp eq i32 %7, %3
  br i1 %exitcond.not, label %._crit_edge, label %.lr.ph, !llvm.loop !104

._crit_edge:                                      ; preds = %.lr.ph, %2
  %8 = tail call i32 @hwloc_get_nbobjs_by_depth(ptr noundef %1, i32 noundef -3) #21
  %.not.i = icmp eq i32 %8, 0
  br i1 %.not.i, label %hwloc_lstopo_show_summary_depth.exit, label %9

9:                                                ; preds = %._crit_edge
  %10 = tail call i32 @hwloc_get_depth_type(ptr noundef %1, i32 noundef -3) #21
  %11 = tail call i32 (ptr, ptr, ...) @fprintf(ptr noundef nonnull %0, ptr noundef nonnull @.str.81, i32 noundef -3) #18
  %12 = tail call ptr @hwloc_obj_type_string(i32 noundef %10) #19
  %13 = trunc i64 %spec.select to i32
  %14 = sub i32 %13, %11
  %15 = tail call i32 (ptr, ptr, ...) @fprintf(ptr noundef nonnull %0, ptr noundef nonnull @.str.83, i32 noundef %14, ptr noundef nonnull @.str.8, i32 noundef %8, ptr noundef %12, i32 noundef %10) #18
  br label %hwloc_lstopo_show_summary_depth.exit

hwloc_lstopo_show_summary_depth.exit:             ; preds = %._crit_edge, %9
  %16 = tail call i32 @hwloc_get_nbobjs_by_depth(ptr noundef %1, i32 noundef -8) #21
  %.not.i31 = icmp eq i32 %16, 0
  br i1 %.not.i31, label %hwloc_lstopo_show_summary_depth.exit32, label %17

17:                                               ; preds = %hwloc_lstopo_show_summary_depth.exit
  %18 = tail call i32 @hwloc_get_depth_type(ptr noundef %1, i32 noundef -8) #21
  %19 = tail call i32 (ptr, ptr, ...) @fprintf(ptr noundef nonnull %0, ptr noundef nonnull @.str.81, i32 noundef -8) #18
  %20 = tail call ptr @hwloc_obj_type_string(i32 noundef %18) #19
  %21 = trunc i64 %spec.select to i32
  %22 = sub i32 %21, %19
  %23 = tail call i32 (ptr, ptr, ...) @fprintf(ptr noundef nonnull %0, ptr noundef nonnull @.str.83, i32 noundef %22, ptr noundef nonnull @.str.8, i32 noundef %16, ptr noundef %20, i32 noundef %18) #18
  br label %hwloc_lstopo_show_summary_depth.exit32

hwloc_lstopo_show_summary_depth.exit32:           ; preds = %hwloc_lstopo_show_summary_depth.exit, %17
  %24 = tail call i32 @hwloc_get_nbobjs_by_depth(ptr noundef %1, i32 noundef -4) #21
  %.not.i33 = icmp eq i32 %24, 0
  br i1 %.not.i33, label %hwloc_lstopo_show_summary_depth.exit34, label %25

25:                                               ; preds = %hwloc_lstopo_show_summary_depth.exit32
  %26 = tail call i32 @hwloc_get_depth_type(ptr noundef %1, i32 noundef -4) #21
  %27 = tail call i32 (ptr, ptr, ...) @fprintf(ptr noundef nonnull %0, ptr noundef nonnull @.str.81, i32 noundef -4) #18
  %28 = tail call ptr @hwloc_obj_type_string(i32 noundef %26) #19
  %29 = trunc i64 %spec.select to i32
  %30 = sub i32 %29, %27
  %31 = tail call i32 (ptr, ptr, ...) @fprintf(ptr noundef nonnull %0, ptr noundef nonnull @.str.83, i32 noundef %30, ptr noundef nonnull @.str.8, i32 noundef %24, ptr noundef %28, i32 noundef %26) #18
  br label %hwloc_lstopo_show_summary_depth.exit34

hwloc_lstopo_show_summary_depth.exit34:           ; preds = %hwloc_lstopo_show_summary_depth.exit32, %25
  %32 = tail call i32 @hwloc_get_nbobjs_by_depth(ptr noundef %1, i32 noundef -5) #21
  %.not.i35 = icmp eq i32 %32, 0
  br i1 %.not.i35, label %hwloc_lstopo_show_summary_depth.exit36, label %33

33:                                               ; preds = %hwloc_lstopo_show_summary_depth.exit34
  %34 = tail call i32 @hwloc_get_depth_type(ptr noundef %1, i32 noundef -5) #21
  %35 = tail call i32 (ptr, ptr, ...) @fprintf(ptr noundef nonnull %0, ptr noundef nonnull @.str.81, i32 noundef -5) #18
  %36 = tail call ptr @hwloc_obj_type_string(i32 noundef %34) #19
  %37 = trunc i64 %spec.select to i32
  %38 = sub i32 %37, %35
  %39 = tail call i32 (ptr, ptr, ...) @fprintf(ptr noundef nonnull %0, ptr noundef nonnull @.str.83, i32 noundef %38, ptr noundef nonnull @.str.8, i32 noundef %32, ptr noundef %36, i32 noundef %34) #18
  br label %hwloc_lstopo_show_summary_depth.exit36

hwloc_lstopo_show_summary_depth.exit36:           ; preds = %hwloc_lstopo_show_summary_depth.exit34, %33
  %40 = tail call i32 @hwloc_get_nbobjs_by_depth(ptr noundef %1, i32 noundef -6) #21
  %.not.i37 = icmp eq i32 %40, 0
  br i1 %.not.i37, label %hwloc_lstopo_show_summary_depth.exit38, label %41

41:                                               ; preds = %hwloc_lstopo_show_summary_depth.exit36
  %42 = tail call i32 @hwloc_get_depth_type(ptr noundef %1, i32 noundef -6) #21
  %43 = tail call i32 (ptr, ptr, ...) @fprintf(ptr noundef nonnull %0, ptr noundef nonnull @.str.81, i32 noundef -6) #18
  %44 = tail call ptr @hwloc_obj_type_string(i32 noundef %42) #19
  %45 = trunc i64 %spec.select to i32
  %46 = sub i32 %45, %43
  %47 = tail call i32 (ptr, ptr, ...) @fprintf(ptr noundef nonnull %0, ptr noundef nonnull @.str.83, i32 noundef %46, ptr noundef nonnull @.str.8, i32 noundef %40, ptr noundef %44, i32 noundef %42) #18
  br label %hwloc_lstopo_show_summary_depth.exit38

hwloc_lstopo_show_summary_depth.exit38:           ; preds = %hwloc_lstopo_show_summary_depth.exit36, %41
  %48 = tail call i32 @hwloc_get_nbobjs_by_depth(ptr noundef %1, i32 noundef -7) #21
  %.not.i39 = icmp eq i32 %48, 0
  br i1 %.not.i39, label %hwloc_lstopo_show_summary_depth.exit40, label %49

49:                                               ; preds = %hwloc_lstopo_show_summary_depth.exit38
  %50 = tail call i32 @hwloc_get_depth_type(ptr noundef %1, i32 noundef -7) #21
  %51 = tail call i32 (ptr, ptr, ...) @fprintf(ptr noundef nonnull %0, ptr noundef nonnull @.str.81, i32 noundef -7) #18
  %52 = tail call ptr @hwloc_obj_type_string(i32 noundef %50) #19
  %53 = trunc i64 %spec.select to i32
  %54 = sub i32 %53, %51
  %55 = tail call i32 (ptr, ptr, ...) @fprintf(ptr noundef nonnull %0, ptr noundef nonnull @.str.83, i32 noundef %54, ptr noundef nonnull @.str.8, i32 noundef %48, ptr noundef %52, i32 noundef %50) #18
  br label %hwloc_lstopo_show_summary_depth.exit40

hwloc_lstopo_show_summary_depth.exit40:           ; preds = %hwloc_lstopo_show_summary_depth.exit38, %49
  ret void
}